target datalayout = "e-m:e-p270:32:32-p271:32:32-p272:64:64-i64:64-i128:128-f80:128-n8:16:32:64-S128"
target triple = "x86_64-pc-linux-gnu"

%"class.StringDedup::Stat" = type { i64, i64, i64, i64, i64, i64, i64, i64, i64, i64, i64, i64, i64, i64, i64, i64, i64, %class.TimeInstant, %class.TimeInterval, %class.TimeInstant, %class.TimeInterval, %class.TimeInterval, %class.TimeInterval, %class.TimeInterval }
%class.TimeInstant = type { %class.CompositeCounterRepresentation }
%class.CompositeCounterRepresentation = type { %class.Representation }
%class.Representation = type { %class.PairRep }
%class.PairRep = type { i64, i64 }
%class.TimeInterval = type { %class.CompositeCounterRepresentation }

; Function Attrs: mustprogress nounwind uwtable
define linkonce_odr hidden void @_ZN7PairRepIllEpLERKS0_(ptr noundef nonnull align 8 dereferenceable(16) %0, ptr noundef nonnull align 8 dereferenceable(16) %1) #1 comdat align 2 {
  %3 = alloca ptr, align 8
  %4 = alloca ptr, align 8
  store ptr %0, ptr %3, align 8
  store ptr %1, ptr %4, align 8
  %5 = load ptr, ptr %3, align 8
  %6 = load ptr, ptr %4, align 8
  %7 = getelementptr inbounds %class.PairRep, ptr %6, i32 0, i32 0
  %8 = load i64, ptr %7, align 8
  %9 = getelementptr inbounds %class.PairRep, ptr %5, i32 0, i32 0
  %10 = load i64, ptr %9, align 8
  %11 = add nsw i64 %10, %8
  store i64 %11, ptr %9, align 8
  %12 = load ptr, ptr %4, align 8
  %13 = getelementptr inbounds %class.PairRep, ptr %12, i32 0, i32 1
  %14 = load i64, ptr %13, align 8
  %15 = getelementptr inbounds %class.PairRep, ptr %5, i32 0, i32 1
  %16 = load i64, ptr %15, align 8
  %17 = add nsw i64 %16, %14
  store i64 %17, ptr %15, align 8
  ret void
}

; Function Attrs: mustprogress nounwind uwtable
define linkonce_odr hidden void @_ZN14RepresentationI29CompositeElapsedCounterSourceEpLERKS1_(ptr noundef nonnull align 8 dereferenceable(16) %0, ptr noundef nonnull align 8 dereferenceable(16) %1) #1 comdat align 2 {
  %3 = alloca ptr, align 8
  %4 = alloca ptr, align 8
  store ptr %0, ptr %3, align 8
  store ptr %1, ptr %4, align 8
  %5 = load ptr, ptr %3, align 8
  %6 = load ptr, ptr %4, align 8
  %7 = getelementptr inbounds %class.Representation, ptr %6, i32 0, i32 0
  %8 = getelementptr inbounds %class.Representation, ptr %5, i32 0, i32 0
  call void @_ZN7PairRepIllEpLERKS0_(ptr noundef nonnull align 8 dereferenceable(16) %8, ptr noundef nonnull align 8 dereferenceable(16) %7)
  ret void
}

; Function Attrs: mustprogress nounwind uwtable
define hidden void @_ZN11StringDedup4Stat3addEPKS0_(ptr noundef nonnull align 8 dereferenceable(248) %0, ptr noundef %1) #1 align 2 {
  %3 = alloca ptr, align 8
  %4 = alloca ptr, align 8
  store ptr %0, ptr %3, align 8
  store ptr %1, ptr %4, align 8
  %5 = load ptr, ptr %3, align 8
  %6 = load ptr, ptr %4, align 8
  %7 = getelementptr inbounds %"class.StringDedup::Stat", ptr %6, i32 0, i32 0
  %8 = load i64, ptr %7, align 8
  %9 = getelementptr inbounds %"class.StringDedup::Stat", ptr %5, i32 0, i32 0
  %10 = load i64, ptr %9, align 8
  %11 = add i64 %10, %8
  store i64 %11, ptr %9, align 8
  %12 = load ptr, ptr %4, align 8
  %13 = getelementptr inbounds %"class.StringDedup::Stat", ptr %12, i32 0, i32 1
  %14 = load i64, ptr %13, align 8
  %15 = getelementptr inbounds %"class.StringDedup::Stat", ptr %5, i32 0, i32 1
  %16 = load i64, ptr %15, align 8
  %17 = add i64 %16, %14
  store i64 %17, ptr %15, align 8
  %18 = load ptr, ptr %4, align 8
  %19 = getelementptr inbounds %"class.StringDedup::Stat", ptr %18, i32 0, i32 2
  %20 = load i64, ptr %19, align 8
  %21 = getelementptr inbounds %"class.StringDedup::Stat", ptr %5, i32 0, i32 2
  %22 = load i64, ptr %21, align 8
  %23 = add i64 %22, %20
  store i64 %23, ptr %21, align 8
  %24 = load ptr, ptr %4, align 8
  %25 = getelementptr inbounds %"class.StringDedup::Stat", ptr %24, i32 0, i32 3
  %26 = load i64, ptr %25, align 8
  %27 = getelementptr inbounds %"class.StringDedup::Stat", ptr %5, i32 0, i32 3
  %28 = load i64, ptr %27, align 8
  %29 = add i64 %28, %26
  store i64 %29, ptr %27, align 8
  %30 = load ptr, ptr %4, align 8
  %31 = getelementptr inbounds %"class.StringDedup::Stat", ptr %30, i32 0, i32 4
  %32 = load i64, ptr %31, align 8
  %33 = getelementptr inbounds %"class.StringDedup::Stat", ptr %5, i32 0, i32 4
  %34 = load i64, ptr %33, align 8
  %35 = add i64 %34, %32
  store i64 %35, ptr %33, align 8
  %36 = load ptr, ptr %4, align 8
  %37 = getelementptr inbounds %"class.StringDedup::Stat", ptr %36, i32 0, i32 5
  %38 = load i64, ptr %37, align 8
  %39 = getelementptr inbounds %"class.StringDedup::Stat", ptr %5, i32 0, i32 5
  %40 = load i64, ptr %39, align 8
  %41 = add i64 %40, %38
  store i64 %41, ptr %39, align 8
  %42 = load ptr, ptr %4, align 8
  %43 = getelementptr inbounds %"class.StringDedup::Stat", ptr %42, i32 0, i32 6
  %44 = load i64, ptr %43, align 8
  %45 = getelementptr inbounds %"class.StringDedup::Stat", ptr %5, i32 0, i32 6
  %46 = load i64, ptr %45, align 8
  %47 = add i64 %46, %44
  store i64 %47, ptr %45, align 8
  %48 = load ptr, ptr %4, align 8
  %49 = getelementptr inbounds %"class.StringDedup::Stat", ptr %48, i32 0, i32 7
  %50 = load i64, ptr %49, align 8
  %51 = getelementptr inbounds %"class.StringDedup::Stat", ptr %5, i32 0, i32 7
  %52 = load i64, ptr %51, align 8
  %53 = add i64 %52, %50
  store i64 %53, ptr %51, align 8
  %54 = load ptr, ptr %4, align 8
  %55 = getelementptr inbounds %"class.StringDedup::Stat", ptr %54, i32 0, i32 8
  %56 = load i64, ptr %55, align 8
  %57 = getelementptr inbounds %"class.StringDedup::Stat", ptr %5, i32 0, i32 8
  %58 = load i64, ptr %57, align 8
  %59 = add i64 %58, %56
  store i64 %59, ptr %57, align 8
  %60 = load ptr, ptr %4, align 8
  %61 = getelementptr inbounds %"class.StringDedup::Stat", ptr %60, i32 0, i32 9
  %62 = load i64, ptr %61, align 8
  %63 = getelementptr inbounds %"class.StringDedup::Stat", ptr %5, i32 0, i32 9
  %64 = load i64, ptr %63, align 8
  %65 = add i64 %64, %62
  store i64 %65, ptr %63, align 8
  %66 = load ptr, ptr %4, align 8
  %67 = getelementptr inbounds %"class.StringDedup::Stat", ptr %66, i32 0, i32 10
  %68 = load i64, ptr %67, align 8
  %69 = getelementptr inbounds %"class.StringDedup::Stat", ptr %5, i32 0, i32 10
  %70 = load i64, ptr %69, align 8
  %71 = add i64 %70, %68
  store i64 %71, ptr %69, align 8
  %72 = load ptr, ptr %4, align 8
  %73 = getelementptr inbounds %"class.StringDedup::Stat", ptr %72, i32 0, i32 11
  %74 = load i64, ptr %73, align 8
  %75 = getelementptr inbounds %"class.StringDedup::Stat", ptr %5, i32 0, i32 11
  %76 = load i64, ptr %75, align 8
  %77 = add i64 %76, %74
  store i64 %77, ptr %75, align 8
  %78 = load ptr, ptr %4, align 8
  %79 = getelementptr inbounds %"class.StringDedup::Stat", ptr %78, i32 0, i32 12
  %80 = load i64, ptr %79, align 8
  %81 = getelementptr inbounds %"class.StringDedup::Stat", ptr %5, i32 0, i32 12
  %82 = load i64, ptr %81, align 8
  %83 = add i64 %82, %80
  store i64 %83, ptr %81, align 8
  %84 = load ptr, ptr %4, align 8
  %85 = getelementptr inbounds %"class.StringDedup::Stat", ptr %84, i32 0, i32 13
  %86 = load i64, ptr %85, align 8
  %87 = getelementptr inbounds %"class.StringDedup::Stat", ptr %5, i32 0, i32 13
  %88 = load i64, ptr %87, align 8
  %89 = add i64 %88, %86
  store i64 %89, ptr %87, align 8
  %90 = load ptr, ptr %4, align 8
  %91 = getelementptr inbounds %"class.StringDedup::Stat", ptr %90, i32 0, i32 14
  %92 = load i64, ptr %91, align 8
  %93 = getelementptr inbounds %"class.StringDedup::Stat", ptr %5, i32 0, i32 14
  %94 = load i64, ptr %93, align 8
  %95 = add i64 %94, %92
  store i64 %95, ptr %93, align 8
  %96 = load ptr, ptr %4, align 8
  %97 = getelementptr inbounds %"class.StringDedup::Stat", ptr %96, i32 0, i32 15
  %98 = load i64, ptr %97, align 8
  %99 = getelementptr inbounds %"class.StringDedup::Stat", ptr %5, i32 0, i32 15
  %100 = load i64, ptr %99, align 8
  %101 = add i64 %100, %98
  store i64 %101, ptr %99, align 8
  %102 = load ptr, ptr %4, align 8
  %103 = getelementptr inbounds %"class.StringDedup::Stat", ptr %102, i32 0, i32 16
  %104 = load i64, ptr %103, align 8
  %105 = getelementptr inbounds %"class.StringDedup::Stat", ptr %5, i32 0, i32 16
  %106 = load i64, ptr %105, align 8
  %107 = add i64 %106, %104
  store i64 %107, ptr %105, align 8
  %108 = load ptr, ptr %4, align 8
  %109 = getelementptr inbounds %"class.StringDedup::Stat", ptr %108, i32 0, i32 18
  %110 = getelementptr inbounds %"class.StringDedup::Stat", ptr %5, i32 0, i32 18
  call void @_ZN14RepresentationI29CompositeElapsedCounterSourceEpLERKS1_(ptr noundef nonnull align 8 dereferenceable(16) %110, ptr noundef nonnull align 8 dereferenceable(16) %109)
  %111 = load ptr, ptr %4, align 8
  %112 = getelementptr inbounds %"class.StringDedup::Stat", ptr %111, i32 0, i32 20
  %113 = getelementptr inbounds %"class.StringDedup::Stat", ptr %5, i32 0, i32 20
  call void @_ZN14RepresentationI29CompositeElapsedCounterSourceEpLERKS1_(ptr noundef nonnull align 8 dereferenceable(16) %113, ptr noundef nonnull align 8 dereferenceable(16) %112)
  %114 = load ptr, ptr %4, align 8
  %115 = getelementptr inbounds %"class.StringDedup::Stat", ptr %114, i32 0, i32 21
  %116 = getelementptr inbounds %"class.StringDedup::Stat", ptr %5, i32 0, i32 21
  call void @_ZN14RepresentationI29CompositeElapsedCounterSourceEpLERKS1_(ptr noundef nonnull align 8 dereferenceable(16) %116, ptr noundef nonnull align 8 dereferenceable(16) %115)
  %117 = load ptr, ptr %4, align 8
  %118 = getelementptr inbounds %"class.StringDedup::Stat", ptr %117, i32 0, i32 22
  %119 = getelementptr inbounds %"class.StringDedup::Stat", ptr %5, i32 0, i32 22
  call void @_ZN14RepresentationI29CompositeElapsedCounterSourceEpLERKS1_(ptr noundef nonnull align 8 dereferenceable(16) %119, ptr noundef nonnull align 8 dereferenceable(16) %118)
  %120 = load ptr, ptr %4, align 8
  %121 = getelementptr inbounds %"class.StringDedup::Stat", ptr %120, i32 0, i32 23
  %122 = getelementptr inbounds %"class.StringDedup::Stat", ptr %5, i32 0, i32 23
  call void @_ZN14RepresentationI29CompositeElapsedCounterSourceEpLERKS1_(ptr noundef nonnull align 8 dereferenceable(16) %122, ptr noundef nonnull align 8 dereferenceable(16) %121)
  ret void
}