; Function Attrs: mustprogress nofree norecurse nosync nounwind willreturn memory(argmem: readwrite) uwtable
define hidden void @_ZN11StringDedup4Stat3addEPKS0_(ptr nocapture noundef nonnull align 8 dereferenceable(248) %0, ptr nocapture noundef readonly %1) local_unnamed_addr #1 align 2 {
  %3 = load i64, ptr %1, align 8
  %4 = load i64, ptr %0, align 8
  %5 = add i64 %4, %3
  store i64 %5, ptr %0, align 8
  %6 = getelementptr inbounds i8, ptr %1, i64 8
  %7 = load i64, ptr %6, align 8
  %8 = getelementptr inbounds i8, ptr %0, i64 8
  %9 = load i64, ptr %8, align 8
  %10 = add i64 %9, %7
  store i64 %10, ptr %8, align 8
  %11 = getelementptr inbounds i8, ptr %1, i64 16
  %12 = load i64, ptr %11, align 8
  %13 = getelementptr inbounds i8, ptr %0, i64 16
  %14 = load i64, ptr %13, align 8
  %15 = add i64 %14, %12
  store i64 %15, ptr %13, align 8
  %16 = getelementptr inbounds i8, ptr %1, i64 24
  %17 = load i64, ptr %16, align 8
  %18 = getelementptr inbounds i8, ptr %0, i64 24
  %19 = load i64, ptr %18, align 8
  %20 = add i64 %19, %17
  store i64 %20, ptr %18, align 8
  %21 = getelementptr inbounds i8, ptr %1, i64 32
  %22 = load i64, ptr %21, align 8
  %23 = getelementptr inbounds i8, ptr %0, i64 32
  %24 = load i64, ptr %23, align 8
  %25 = add i64 %24, %22
  store i64 %25, ptr %23, align 8
  %26 = getelementptr inbounds i8, ptr %1, i64 40
  %27 = load i64, ptr %26, align 8
  %28 = getelementptr inbounds i8, ptr %0, i64 40
  %29 = load i64, ptr %28, align 8
  %30 = add i64 %29, %27
  store i64 %30, ptr %28, align 8
  %31 = getelementptr inbounds i8, ptr %1, i64 48
  %32 = load i64, ptr %31, align 8
  %33 = getelementptr inbounds i8, ptr %0, i64 48
  %34 = load i64, ptr %33, align 8
  %35 = add i64 %34, %32
  store i64 %35, ptr %33, align 8
  %36 = getelementptr inbounds i8, ptr %1, i64 56
  %37 = load i64, ptr %36, align 8
  %38 = getelementptr inbounds i8, ptr %0, i64 56
  %39 = load i64, ptr %38, align 8
  %40 = add i64 %39, %37
  store i64 %40, ptr %38, align 8
  %41 = getelementptr inbounds i8, ptr %1, i64 64
  %42 = load i64, ptr %41, align 8
  %43 = getelementptr inbounds i8, ptr %0, i64 64
  %44 = load i64, ptr %43, align 8
  %45 = add i64 %44, %42
  store i64 %45, ptr %43, align 8
  %46 = getelementptr inbounds i8, ptr %1, i64 72
  %47 = load i64, ptr %46, align 8
  %48 = getelementptr inbounds i8, ptr %0, i64 72
  %49 = load i64, ptr %48, align 8
  %50 = add i64 %49, %47
  store i64 %50, ptr %48, align 8
  %51 = getelementptr inbounds i8, ptr %1, i64 80
  %52 = load i64, ptr %51, align 8
  %53 = getelementptr inbounds i8, ptr %0, i64 80
  %54 = load i64, ptr %53, align 8
  %55 = add i64 %54, %52
  store i64 %55, ptr %53, align 8
  %56 = getelementptr inbounds i8, ptr %1, i64 88
  %57 = load i64, ptr %56, align 8
  %58 = getelementptr inbounds i8, ptr %0, i64 88
  %59 = load i64, ptr %58, align 8
  %60 = add i64 %59, %57
  store i64 %60, ptr %58, align 8
  %61 = getelementptr inbounds i8, ptr %1, i64 96
  %62 = load i64, ptr %61, align 8
  %63 = getelementptr inbounds i8, ptr %0, i64 96
  %64 = load i64, ptr %63, align 8
  %65 = add i64 %64, %62
  store i64 %65, ptr %63, align 8
  %66 = getelementptr inbounds i8, ptr %1, i64 104
  %67 = load i64, ptr %66, align 8
  %68 = getelementptr inbounds i8, ptr %0, i64 104
  %69 = load i64, ptr %68, align 8
  %70 = add i64 %69, %67
  store i64 %70, ptr %68, align 8
  %71 = getelementptr inbounds i8, ptr %1, i64 112
  %72 = load i64, ptr %71, align 8
  %73 = getelementptr inbounds i8, ptr %0, i64 112
  %74 = load i64, ptr %73, align 8
  %75 = add i64 %74, %72
  store i64 %75, ptr %73, align 8
  %76 = getelementptr inbounds i8, ptr %1, i64 120
  %77 = load i64, ptr %76, align 8
  %78 = getelementptr inbounds i8, ptr %0, i64 120
  %79 = load i64, ptr %78, align 8
  %80 = add i64 %79, %77
  store i64 %80, ptr %78, align 8
  %81 = getelementptr inbounds i8, ptr %1, i64 128
  %82 = load i64, ptr %81, align 8
  %83 = getelementptr inbounds i8, ptr %0, i64 128
  %84 = load i64, ptr %83, align 8
  %85 = add i64 %84, %82
  store i64 %85, ptr %83, align 8
  %86 = getelementptr inbounds i8, ptr %1, i64 152
  %87 = getelementptr inbounds i8, ptr %0, i64 152
  %88 = load i64, ptr %86, align 8
  %89 = load i64, ptr %87, align 8
  %90 = add nsw i64 %89, %88
  store i64 %90, ptr %87, align 8
  %91 = getelementptr inbounds i8, ptr %1, i64 160
  %92 = load i64, ptr %91, align 8
  %93 = getelementptr inbounds i8, ptr %0, i64 160
  %94 = load i64, ptr %93, align 8
  %95 = add nsw i64 %94, %92
  store i64 %95, ptr %93, align 8
  %96 = getelementptr inbounds i8, ptr %1, i64 184
  %97 = getelementptr inbounds i8, ptr %0, i64 184
  %98 = load i64, ptr %96, align 8
  %99 = load i64, ptr %97, align 8
  %100 = add nsw i64 %99, %98
  store i64 %100, ptr %97, align 8
  %101 = getelementptr inbounds i8, ptr %1, i64 192
  %102 = load i64, ptr %101, align 8
  %103 = getelementptr inbounds i8, ptr %0, i64 192
  %104 = load i64, ptr %103, align 8
  %105 = add nsw i64 %104, %102
  store i64 %105, ptr %103, align 8
  %106 = getelementptr inbounds i8, ptr %1, i64 200
  %107 = getelementptr inbounds i8, ptr %0, i64 200
  %108 = load i64, ptr %106, align 8
  %109 = load i64, ptr %107, align 8
  %110 = add nsw i64 %109, %108
  store i64 %110, ptr %107, align 8
  %111 = getelementptr inbounds i8, ptr %1, i64 208
  %112 = load i64, ptr %111, align 8
  %113 = getelementptr inbounds i8, ptr %0, i64 208
  %114 = load i64, ptr %113, align 8
  %115 = add nsw i64 %114, %112
  store i64 %115, ptr %113, align 8
  %116 = getelementptr inbounds i8, ptr %1, i64 216
  %117 = getelementptr inbounds i8, ptr %0, i64 216
  %118 = load i64, ptr %116, align 8
  %119 = load i64, ptr %117, align 8
  %120 = add nsw i64 %119, %118
  store i64 %120, ptr %117, align 8
  %121 = getelementptr inbounds i8, ptr %1, i64 224
  %122 = load i64, ptr %121, align 8
  %123 = getelementptr inbounds i8, ptr %0, i64 224
  %124 = load i64, ptr %123, align 8
  %125 = add nsw i64 %124, %122
  store i64 %125, ptr %123, align 8
  %126 = getelementptr inbounds i8, ptr %1, i64 232
  %127 = getelementptr inbounds i8, ptr %0, i64 232
  %128 = load i64, ptr %126, align 8
  %129 = load i64, ptr %127, align 8
  %130 = add nsw i64 %129, %128
  store i64 %130, ptr %127, align 8
  %131 = getelementptr inbounds i8, ptr %1, i64 240
  %132 = load i64, ptr %131, align 8
  %133 = getelementptr inbounds i8, ptr %0, i64 240
  %134 = load i64, ptr %133, align 8
  %135 = add nsw i64 %134, %132
  store i64 %135, ptr %133, align 8
  ret void
}